; Function Attrs: mustprogress nounwind uwtable
define dso_local void @_ZN4llvm15set_thread_nameERKNS_5TwineE(ptr noundef nonnull align 8 dereferenceable(34) %0) local_unnamed_addr #0 {
  %2 = alloca %"class.llvm::SmallString", align 8
  %3 = getelementptr inbounds i8, ptr %2, i64 24
  call void @_ZN4llvm15SmallVectorBaseImEC2EPvm(ptr noundef nonnull align 8 dereferenceable(24) %2, ptr noundef nonnull %3, i64 noundef 64) #18
  %4 = call { ptr, i64 } @_ZNK4llvm5Twine25toNullTerminatedStringRefERNS_15SmallVectorImplIcEE(ptr noundef nonnull align 8 dereferenceable(34) %0, ptr noundef nonnull align 8 dereferenceable(24) %2) #18
  %5 = extractvalue { ptr, i64 } %4, 0
  %6 = extractvalue { ptr, i64 } %4, 1
  %.sroa.0.0.idx.i = call i64 @llvm.usub.sat.i64(i64 %6, i64 15)
  %.sroa.0.0.i = getelementptr inbounds i8, ptr %5, i64 %.sroa.0.0.idx.i
  %7 = tail call i64 @pthread_self() #21
  %8 = call i32 @pthread_setname_np(i64 noundef %7, ptr noundef %.sroa.0.0.i) #18
  %9 = call noundef i64 @_ZNK4llvm15SmallVectorBaseImE4sizeEv(ptr noundef nonnull align 8 dereferenceable(24) %2) #18
  %10 = load ptr, ptr %2, align 8
  %11 = icmp eq ptr %10, %3
  br i1 %11, label %_ZN4llvm11SmallStringILj64EED2Ev.exit, label %12

12:                                               ; preds = %1
  call void @free(ptr noundef %10) #18
  br label %_ZN4llvm11SmallStringILj64EED2Ev.exit

_ZN4llvm11SmallStringILj64EED2Ev.exit:            ; preds = %1, %12
  ret void
}